; Function Attrs: nounwind uwtable
define dso_local range(i32 -1, 1) i32 @_PyList_AppendTakeRefListResize(ptr noundef captures(none) %0, ptr noundef %1) local_unnamed_addr #0 {
  %3 = getelementptr i8, ptr %0, i64 16
  %.val = load i64, ptr %3, align 8, !tbaa !33
  %4 = add i64 %.val, 1
  %5 = getelementptr inbounds nuw i8, ptr %0, i64 32
  %6 = load i64, ptr %5, align 8, !tbaa !34
  %.not.i7 = icmp slt i64 %6, %4
  %7 = ashr i64 %6, 1
  %.not32.i = icmp slt i64 %4, %7
  %or.cond.i = or i1 %.not.i7, %.not32.i
  br i1 %or.cond.i, label %9, label %8

8:                                                ; preds = %2
  store i64 %4, ptr %3, align 8, !tbaa !33
  %.phi.trans.insert = getelementptr inbounds nuw i8, ptr %0, i64 24
  %.pre = load ptr, ptr %.phi.trans.insert, align 8, !tbaa !27
  br label %34

9:                                                ; preds = %2
  %10 = ashr i64 %4, 3
  %11 = add i64 %.val, 7
  %12 = add i64 %11, %10
  %13 = and i64 %12, -4
  %14 = sub i64 %13, %4
  %15 = icmp slt i64 %14, 1
  %16 = and i64 %.val, -4
  %17 = add i64 %16, 4
  %.028.i = select i1 %15, i64 %17, i64 %13
  %18 = icmp eq i64 %4, 0
  %.129.i = select i1 %18, i64 0, i64 %.028.i
  %19 = icmp ult i64 %.129.i, 1152921504606846976
  br i1 %19, label %20, label %27

20:                                               ; preds = %9
  %21 = shl nuw nsw i64 %.129.i, 3
  %22 = getelementptr inbounds nuw i8, ptr %0, i64 24
  %23 = load ptr, ptr %22, align 8, !tbaa !27
  %24 = tail call ptr @PyMem_Realloc(ptr noundef %23, i64 noundef %21) #12
  %25 = icmp eq ptr %24, null
  br i1 %25, label %27, label %26

26:                                               ; preds = %20
  store ptr %24, ptr %22, align 8, !tbaa !27
  store i64 %4, ptr %3, align 8, !tbaa !33
  store i64 %.129.i, ptr %5, align 8, !tbaa !34
  br label %34

27:                                               ; preds = %20, %9
  %28 = tail call ptr @PyErr_NoMemory() #12
  %29 = load i32, ptr %1, align 8, !tbaa !32
  %.not.i = icmp sgt i32 %29, -1
  br i1 %.not.i, label %30, label %Py_DECREF.exit

30:                                               ; preds = %27
  %31 = add nsw i32 %29, -1
  store i32 %31, ptr %1, align 8, !tbaa !32
  %32 = icmp eq i32 %31, 0
  br i1 %32, label %33, label %Py_DECREF.exit

33:                                               ; preds = %30
  tail call void @_Py_Dealloc(ptr noundef nonnull %1) #12
  br label %Py_DECREF.exit

34:                                               ; preds = %8, %26
  %35 = phi ptr [ %.pre, %8 ], [ %24, %26 ]
  %36 = getelementptr ptr, ptr %35, i64 %.val
  store ptr %1, ptr %36, align 8, !tbaa !112
  br label %Py_DECREF.exit

Py_DECREF.exit:                                   ; preds = %33, %30, %27, %34
  %.0 = phi i32 [ 0, %34 ], [ -1, %27 ], [ -1, %30 ], [ -1, %33 ]
  ret i32 %.0
}